target datalayout = "e-m:e-p270:32:32-p271:32:32-p272:64:64-i64:64-i128:128-f80:128-n8:16:32:64-S128"
target triple = "x86_64-pc-linux-gnu"

; Function Attrs: mustprogress uwtable
define void @_ZN32pxrInternal_v0_24__pxrReserved__24Sdf_TextFileFormatParser30_SetGenericMetadataListOpItemsERKNS_6TfTypeEPNS_21Sdf_TextParserContextE(ptr noundef nonnull align 8 dereferenceable(8) %0, ptr noundef %1) #0 {
  %3 = alloca ptr, align 8
  %4 = alloca ptr, align 8
  store ptr %0, ptr %3, align 8
  store ptr %1, ptr %4, align 8
  %5 = load ptr, ptr %3, align 8
  %6 = load ptr, ptr %4, align 8
  %7 = call noundef zeroext i1 @_ZN32pxrInternal_v0_24__pxrReserved__24Sdf_TextFileFormatParser17_SetItemsIfListOpINS_9SdfListOpIiEEEEbRKNS_6TfTypeEPNS_21Sdf_TextParserContextE(ptr noundef nonnull align 8 dereferenceable(8) %5, ptr noundef %6)
  br i1 %7, label %28, label %8

8:                                                ; preds = %2
  %9 = load ptr, ptr %3, align 8
  %10 = load ptr, ptr %4, align 8
  %11 = call noundef zeroext i1 @_ZN32pxrInternal_v0_24__pxrReserved__24Sdf_TextFileFormatParser17_SetItemsIfListOpINS_9SdfListOpIlEEEEbRKNS_6TfTypeEPNS_21Sdf_TextParserContextE(ptr noundef nonnull align 8 dereferenceable(8) %9, ptr noundef %10)
  br i1 %11, label %28, label %12

12:                                               ; preds = %8
  %13 = load ptr, ptr %3, align 8
  %14 = load ptr, ptr %4, align 8
  %15 = call noundef zeroext i1 @_ZN32pxrInternal_v0_24__pxrReserved__24Sdf_TextFileFormatParser17_SetItemsIfListOpINS_9SdfListOpIjEEEEbRKNS_6TfTypeEPNS_21Sdf_TextParserContextE(ptr noundef nonnull align 8 dereferenceable(8) %13, ptr noundef %14)
  br i1 %15, label %28, label %16

16:                                               ; preds = %12
  %17 = load ptr, ptr %3, align 8
  %18 = load ptr, ptr %4, align 8
  %19 = call noundef zeroext i1 @_ZN32pxrInternal_v0_24__pxrReserved__24Sdf_TextFileFormatParser17_SetItemsIfListOpINS_9SdfListOpImEEEEbRKNS_6TfTypeEPNS_21Sdf_TextParserContextE(ptr noundef nonnull align 8 dereferenceable(8) %17, ptr noundef %18)
  br i1 %19, label %28, label %20

20:                                               ; preds = %16
  %21 = load ptr, ptr %3, align 8
  %22 = load ptr, ptr %4, align 8
  %23 = call noundef zeroext i1 @_ZN32pxrInternal_v0_24__pxrReserved__24Sdf_TextFileFormatParser17_SetItemsIfListOpINS_9SdfListOpINSt7__cxx1112basic_stringIcSt11char_traitsIcESaIcEEEEEEEbRKNS_6TfTypeEPNS_21Sdf_TextParserContextE(ptr noundef nonnull align 8 dereferenceable(8) %21, ptr noundef %22)
  br i1 %23, label %28, label %24

24:                                               ; preds = %20
  %25 = load ptr, ptr %3, align 8
  %26 = load ptr, ptr %4, align 8
  %27 = call noundef zeroext i1 @_ZN32pxrInternal_v0_24__pxrReserved__24Sdf_TextFileFormatParser17_SetItemsIfListOpINS_9SdfListOpINS_7TfTokenEEEEEbRKNS_6TfTypeEPNS_21Sdf_TextParserContextE(ptr noundef nonnull align 8 dereferenceable(8) %25, ptr noundef %26)
  br label %28

28:                                               ; preds = %24, %20, %16, %12, %8, %2
  ret void
}