; Function Attrs: mustprogress uwtable
define void @_ZN32pxrInternal_v0_24__pxrReserved__24Sdf_TextFileFormatParser30_SetGenericMetadataListOpItemsERKNS_6TfTypeEPNS_21Sdf_TextParserContextE(ptr noundef nonnull align 8 dereferenceable(8) %0, ptr noundef %1) local_unnamed_addr #0 {
  %3 = tail call noundef zeroext i1 @_ZN32pxrInternal_v0_24__pxrReserved__24Sdf_TextFileFormatParser17_SetItemsIfListOpINS_9SdfListOpIiEEEEbRKNS_6TfTypeEPNS_21Sdf_TextParserContextE(ptr noundef nonnull align 8 dereferenceable(8) %0, ptr noundef %1)
  br i1 %3, label %14, label %4

4:                                                ; preds = %2
  %5 = tail call noundef zeroext i1 @_ZN32pxrInternal_v0_24__pxrReserved__24Sdf_TextFileFormatParser17_SetItemsIfListOpINS_9SdfListOpIlEEEEbRKNS_6TfTypeEPNS_21Sdf_TextParserContextE(ptr noundef nonnull align 8 dereferenceable(8) %0, ptr noundef %1)
  br i1 %5, label %14, label %6

6:                                                ; preds = %4
  %7 = tail call noundef zeroext i1 @_ZN32pxrInternal_v0_24__pxrReserved__24Sdf_TextFileFormatParser17_SetItemsIfListOpINS_9SdfListOpIjEEEEbRKNS_6TfTypeEPNS_21Sdf_TextParserContextE(ptr noundef nonnull align 8 dereferenceable(8) %0, ptr noundef %1)
  br i1 %7, label %14, label %8

8:                                                ; preds = %6
  %9 = tail call noundef zeroext i1 @_ZN32pxrInternal_v0_24__pxrReserved__24Sdf_TextFileFormatParser17_SetItemsIfListOpINS_9SdfListOpImEEEEbRKNS_6TfTypeEPNS_21Sdf_TextParserContextE(ptr noundef nonnull align 8 dereferenceable(8) %0, ptr noundef %1)
  br i1 %9, label %14, label %10

10:                                               ; preds = %8
  %11 = tail call noundef zeroext i1 @_ZN32pxrInternal_v0_24__pxrReserved__24Sdf_TextFileFormatParser17_SetItemsIfListOpINS_9SdfListOpINSt7__cxx1112basic_stringIcSt11char_traitsIcESaIcEEEEEEEbRKNS_6TfTypeEPNS_21Sdf_TextParserContextE(ptr noundef nonnull align 8 dereferenceable(8) %0, ptr noundef %1)
  br i1 %11, label %14, label %12

12:                                               ; preds = %10
  %13 = tail call noundef zeroext i1 @_ZN32pxrInternal_v0_24__pxrReserved__24Sdf_TextFileFormatParser17_SetItemsIfListOpINS_9SdfListOpINS_7TfTokenEEEEEbRKNS_6TfTypeEPNS_21Sdf_TextParserContextE(ptr noundef nonnull align 8 dereferenceable(8) %0, ptr noundef %1)
  br label %14

14:                                               ; preds = %12, %10, %8, %6, %4, %2
  ret void
}